target datalayout = "e-m:e-p270:32:32-p271:32:32-p272:64:64-i64:64-i128:128-f80:128-n8:16:32:64-S128"
target triple = "x86_64-unknown-linux-gnu"

%struct.grpc_deadline_state = type { ptr, ptr, ptr, ptr, ptr, %struct.grpc_closure, ptr }
%struct.grpc_closure = type { %union.anon, ptr, ptr, %union.anon.0 }
%union.anon = type { ptr }
%union.anon.0 = type { i64 }
%"class.grpc_core::TimerState" = type { ptr, %struct.grpc_timer, %struct.grpc_closure }
%struct.grpc_timer = type { i64, i32, i8, ptr, ptr, ptr, %union.anon.66 }
%union.anon.66 = type { %"struct.grpc_event_engine::experimental::EventEngine::TaskHandle" }
%"struct.grpc_event_engine::experimental::EventEngine::TaskHandle" = type { [2 x i64] }

; Function Attrs: mustprogress uwtable
define linkonce_odr void @_ZN9grpc_core10TimerState6CancelEv(ptr noundef nonnull align 8 dereferenceable(96) %this) #4 comdat align 2 {
entry:
  %this.addr = alloca ptr, align 8
  store ptr %this, ptr %this.addr, align 8
  %this1 = load ptr, ptr %this.addr, align 8
  %timer_ = getelementptr inbounds %"class.grpc_core::TimerState", ptr %this1, i32 0, i32 1
  call void @_Z17grpc_timer_cancelP10grpc_timer(ptr noundef %timer_)
  ret void
}

; Function Attrs: mustprogress uwtable
define internal void @_ZL22cancel_timer_if_neededP19grpc_deadline_state(ptr noundef %deadline_state) #4 {
entry:
  %deadline_state.addr = alloca ptr, align 8
  store ptr %deadline_state, ptr %deadline_state.addr, align 8
  %0 = load ptr, ptr %deadline_state.addr, align 8
  %timer_state = getelementptr inbounds %struct.grpc_deadline_state, ptr %0, i32 0, i32 4
  %1 = load ptr, ptr %timer_state, align 8
  %cmp = icmp ne ptr %1, null
  br i1 %cmp, label %if.then, label %if.end

if.then:                                          ; preds = %entry
  %2 = load ptr, ptr %deadline_state.addr, align 8
  %timer_state1 = getelementptr inbounds %struct.grpc_deadline_state, ptr %2, i32 0, i32 4
  %3 = load ptr, ptr %timer_state1, align 8
  call void @_ZN9grpc_core10TimerState6CancelEv(ptr noundef nonnull align 8 dereferenceable(96) %3)
  %4 = load ptr, ptr %deadline_state.addr, align 8
  %timer_state2 = getelementptr inbounds %struct.grpc_deadline_state, ptr %4, i32 0, i32 4
  store ptr null, ptr %timer_state2, align 8
  br label %if.end

if.end:                                           ; preds = %if.then, %entry
  ret void
}

; Function Attrs: mustprogress nounwind uwtable
define void @_ZN19grpc_deadline_stateD2Ev(ptr noundef nonnull align 8 dereferenceable(80) %this) unnamed_addr #5 align 2 personality ptr @__gxx_personality_v0 {
entry:
  %this.addr = alloca ptr, align 8
  store ptr %this, ptr %this.addr, align 8
  %this1 = load ptr, ptr %this.addr, align 8
  invoke void @_ZL22cancel_timer_if_neededP19grpc_deadline_state(ptr noundef %this1)
          to label %invoke.cont unwind label %terminate.lpad

invoke.cont:                                      ; preds = %entry
  ret void

terminate.lpad:                                   ; preds = %entry
  %0 = landingpad { ptr, i32 }
          catch ptr null
  %1 = extractvalue { ptr, i32 } %0, 0
  call void @__clang_call_terminate(ptr %1) #17
  unreachable
}