; Function Attrs: mustprogress nounwind uwtable
define void @_ZN19grpc_deadline_stateD2Ev(ptr nocapture noundef nonnull align 8 dereferenceable(80) %this) unnamed_addr #7 align 2 personality ptr @__gxx_personality_v0 {
entry:
  %timer_state.i = getelementptr inbounds i8, ptr %this, i64 32
  %0 = load ptr, ptr %timer_state.i, align 8
  %cmp.not.i = icmp eq ptr %0, null
  br i1 %cmp.not.i, label %invoke.cont, label %if.then.i

if.then.i:                                        ; preds = %entry
  %timer_.i.i = getelementptr inbounds i8, ptr %0, i64 8
  invoke void @_Z17grpc_timer_cancelP10grpc_timer(ptr noundef nonnull %timer_.i.i)
          to label %.noexc unwind label %terminate.lpad

.noexc:                                           ; preds = %if.then.i
  store ptr null, ptr %timer_state.i, align 8
  br label %invoke.cont

invoke.cont:                                      ; preds = %.noexc, %entry
  ret void

terminate.lpad:                                   ; preds = %if.then.i
  %1 = landingpad { ptr, i32 }
          catch ptr null
  %2 = extractvalue { ptr, i32 } %1, 0
  tail call void @__clang_call_terminate(ptr %2) #22
  unreachable
}